; ModuleID = '5/391.c'
source_filename = "5/391.c"
target datalayout = "e-m:e-p270:32:32-p271:32:32-p272:64:64-i64:64-f80:128-n8:16:32:64-S128"
target triple = "x86_64-pc-linux-gnu"

@.str = private unnamed_addr constant [4 x i8] c"%lf\00", align 1
@.str.1 = private unnamed_addr constant [5 x i8] c"%s%s\00", align 1
@.str.2 = private unnamed_addr constant [7 x i8] c"error\0A\00", align 1
@.str.3 = private unnamed_addr constant [5 x i8] c"yes\0A\00", align 1
@.str.4 = private unnamed_addr constant [4 x i8] c"no\0A\00", align 1

; Function Attrs: noinline nounwind uwtable
define dso_local i32 @main() #0 {
  %1 = alloca i32, align 4
  %2 = alloca double, align 8
  %3 = alloca double, align 8
  %4 = alloca double, align 8
  %5 = alloca i32, align 4
  %6 = alloca i32, align 4
  %7 = alloca i32, align 4
  %8 = alloca i32, align 4
  %9 = alloca i32, align 4
  %10 = alloca [550 x i8], align 16
  %11 = alloca [550 x i8], align 16
  store i32 0, i32* %1, align 4
  store double 0.000000e+00, double* %3, align 8
  store i32 0, i32* %9, align 4
  %12 = call i32 (i8*, ...) @__isoc99_scanf(i8* getelementptr inbounds ([4 x i8], [4 x i8]* @.str, i64 0, i64 0), double* %2)
  %13 = getelementptr inbounds [550 x i8], [550 x i8]* %10, i64 0, i64 0
  %14 = getelementptr inbounds [550 x i8], [550 x i8]* %11, i64 0, i64 0
  %15 = call i32 (i8*, ...) @__isoc99_scanf(i8* getelementptr inbounds ([5 x i8], [5 x i8]* @.str.1, i64 0, i64 0), i8* %13, i8* %14)
  %16 = getelementptr inbounds [550 x i8], [550 x i8]* %10, i64 0, i64 0
  %17 = call i64 @strlen(i8* %16) #3
  %18 = trunc i64 %17 to i32
  store i32 %18, i32* %7, align 4
  %19 = getelementptr inbounds [550 x i8], [550 x i8]* %11, i64 0, i64 0
  %20 = call i64 @strlen(i8* %19) #3
  %21 = trunc i64 %20 to i32
  store i32 %21, i32* %8, align 4
  %22 = load i32, i32* %7, align 4
  %23 = load i32, i32* %8, align 4
  %24 = icmp ne i32 %22, %23
  br i1 %24, label %25, label %27

25:                                               ; preds = %0
  %26 = call i32 (i8*, ...) @printf(i8* getelementptr inbounds ([7 x i8], [7 x i8]* @.str.2, i64 0, i64 0))
  br label %27

27:                                               ; preds = %25, %0
  %28 = load i32, i32* %7, align 4
  %29 = load i32, i32* %8, align 4
  %30 = icmp eq i32 %28, %29
  br i1 %30, label %31, label %157

31:                                               ; preds = %27
  store i32 0, i32* %5, align 4
  br label %32

32:                                               ; preds = %68, %31
  %33 = load i32, i32* %5, align 4
  %34 = load i32, i32* %7, align 4
  %35 = icmp slt i32 %33, %34
  br i1 %35, label %36, label %71

36:                                               ; preds = %32
  %37 = load i32, i32* %5, align 4
  %38 = sext i32 %37 to i64
  %39 = getelementptr inbounds [550 x i8], [550 x i8]* %10, i64 0, i64 %38
  %40 = load i8, i8* %39, align 1
  %41 = sext i8 %40 to i32
  %42 = icmp ne i32 %41, 65
  br i1 %42, label %43, label %67

43:                                               ; preds = %36
  %44 = load i32, i32* %5, align 4
  %45 = sext i32 %44 to i64
  %46 = getelementptr inbounds [550 x i8], [550 x i8]* %10, i64 0, i64 %45
  %47 = load i8, i8* %46, align 1
  %48 = sext i8 %47 to i32
  %49 = icmp ne i32 %48, 67
  br i1 %49, label %50, label %67

50:                                               ; preds = %43
  %51 = load i32, i32* %5, align 4
  %52 = sext i32 %51 to i64
  %53 = getelementptr inbounds [550 x i8], [550 x i8]* %10, i64 0, i64 %52
  %54 = load i8, i8* %53, align 1
  %55 = sext i8 %54 to i32
  %56 = icmp ne i32 %55, 71
  br i1 %56, label %57, label %67

57:                                               ; preds = %50
  %58 = load i32, i32* %5, align 4
  %59 = sext i32 %58 to i64
  %60 = getelementptr inbounds [550 x i8], [550 x i8]* %10, i64 0, i64 %59
  %61 = load i8, i8* %60, align 1
  %62 = sext i8 %61 to i32
  %63 = icmp ne i32 %62, 84
  br i1 %63, label %64, label %67

64:                                               ; preds = %57
  %65 = load i32, i32* %9, align 4
  %66 = add nsw i32 %65, 1
  store i32 %66, i32* %9, align 4
  br label %67

67:                                               ; preds = %64, %57, %50, %43, %36
  br label %68

68:                                               ; preds = %67
  %69 = load i32, i32* %5, align 4
  %70 = add nsw i32 %69, 1
  store i32 %70, i32* %5, align 4
  br label %32

71:                                               ; preds = %32
  store i32 0, i32* %5, align 4
  br label %72

72:                                               ; preds = %108, %71
  %73 = load i32, i32* %5, align 4
  %74 = load i32, i32* %8, align 4
  %75 = icmp slt i32 %73, %74
  br i1 %75, label %76, label %111

76:                                               ; preds = %72
  %77 = load i32, i32* %5, align 4
  %78 = sext i32 %77 to i64
  %79 = getelementptr inbounds [550 x i8], [550 x i8]* %11, i64 0, i64 %78
  %80 = load i8, i8* %79, align 1
  %81 = sext i8 %80 to i32
  %82 = icmp ne i32 %81, 65
  br i1 %82, label %83, label %107

83:                                               ; preds = %76
  %84 = load i32, i32* %5, align 4
  %85 = sext i32 %84 to i64
  %86 = getelementptr inbounds [550 x i8], [550 x i8]* %11, i64 0, i64 %85
  %87 = load i8, i8* %86, align 1
  %88 = sext i8 %87 to i32
  %89 = icmp ne i32 %88, 67
  br i1 %89, label %90, label %107

90:                                               ; preds = %83
  %91 = load i32, i32* %5, align 4
  %92 = sext i32 %91 to i64
  %93 = getelementptr inbounds [550 x i8], [550 x i8]* %11, i64 0, i64 %92
  %94 = load i8, i8* %93, align 1
  %95 = sext i8 %94 to i32
  %96 = icmp ne i32 %95, 71
  br i1 %96, label %97, label %107

97:                                               ; preds = %90
  %98 = load i32, i32* %5, align 4
  %99 = sext i32 %98 to i64
  %100 = getelementptr inbounds [550 x i8], [550 x i8]* %11, i64 0, i64 %99
  %101 = load i8, i8* %100, align 1
  %102 = sext i8 %101 to i32
  %103 = icmp ne i32 %102, 84
  br i1 %103, label %104, label %107

104:                                              ; preds = %97
  %105 = load i32, i32* %9, align 4
  %106 = add nsw i32 %105, 1
  store i32 %106, i32* %9, align 4
  br label %107

107:                                              ; preds = %104, %97, %90, %83, %76
  br label %108

108:                                              ; preds = %107
  %109 = load i32, i32* %5, align 4
  %110 = add nsw i32 %109, 1
  store i32 %110, i32* %5, align 4
  br label %72

111:                                              ; preds = %72
  %112 = load i32, i32* %9, align 4
  %113 = icmp eq i32 %112, 0
  br i1 %113, label %114, label %151

114:                                              ; preds = %111
  store i32 0, i32* %5, align 4
  br label %115

115:                                              ; preds = %135, %114
  %116 = load i32, i32* %5, align 4
  %117 = load i32, i32* %7, align 4
  %118 = icmp slt i32 %116, %117
  br i1 %118, label %119, label %138

119:                                              ; preds = %115
  %120 = load i32, i32* %5, align 4
  %121 = sext i32 %120 to i64
  %122 = getelementptr inbounds [550 x i8], [550 x i8]* %10, i64 0, i64 %121
  %123 = load i8, i8* %122, align 1
  %124 = sext i8 %123 to i32
  %125 = load i32, i32* %5, align 4
  %126 = sext i32 %125 to i64
  %127 = getelementptr inbounds [550 x i8], [550 x i8]* %11, i64 0, i64 %126
  %128 = load i8, i8* %127, align 1
  %129 = sext i8 %128 to i32
  %130 = icmp eq i32 %124, %129
  br i1 %130, label %131, label %134

131:                                              ; preds = %119
  %132 = load double, double* %3, align 8
  %133 = fadd double %132, 1.000000e+00
  store double %133, double* %3, align 8
  br label %134

134:                                              ; preds = %131, %119
  br label %135

135:                                              ; preds = %134
  %136 = load i32, i32* %5, align 4
  %137 = add nsw i32 %136, 1
  store i32 %137, i32* %5, align 4
  br label %115

138:                                              ; preds = %115
  %139 = load double, double* %3, align 8
  %140 = load i32, i32* %7, align 4
  %141 = sitofp i32 %140 to double
  %142 = fdiv double %139, %141
  store double %142, double* %4, align 8
  %143 = load double, double* %4, align 8
  %144 = load double, double* %2, align 8
  %145 = fcmp oge double %143, %144
  br i1 %145, label %146, label %148

146:                                              ; preds = %138
  %147 = call i32 (i8*, ...) @printf(i8* getelementptr inbounds ([5 x i8], [5 x i8]* @.str.3, i64 0, i64 0))
  br label %150

148:                                              ; preds = %138
  %149 = call i32 (i8*, ...) @printf(i8* getelementptr inbounds ([4 x i8], [4 x i8]* @.str.4, i64 0, i64 0))
  br label %150

150:                                              ; preds = %148, %146
  br label %151

151:                                              ; preds = %150, %111
  %152 = load i32, i32* %9, align 4
  %153 = icmp ne i32 %152, 0
  br i1 %153, label %154, label %156

154:                                              ; preds = %151
  %155 = call i32 (i8*, ...) @printf(i8* getelementptr inbounds ([7 x i8], [7 x i8]* @.str.2, i64 0, i64 0))
  br label %156

156:                                              ; preds = %154, %151
  br label %157

157:                                              ; preds = %156, %27
  ret i32 0
}

declare dso_local i32 @__isoc99_scanf(i8*, ...) #1

; Function Attrs: nounwind readonly
declare dso_local i64 @strlen(i8*) #2

declare dso_local i32 @printf(i8*, ...) #1


!llvm.module.flags = !{!0}
!llvm.ident = !{!1}

!0 = !{i32 1, !"wchar_size", i32 4}
!1 = !{!"clang version 10.0.0-4ubuntu1 "}
